target datalayout = "e-m:e-p270:32:32-p271:32:32-p272:64:64-i64:64-i128:128-f80:128-n8:16:32:64-S128"
target triple = "x86_64-pc-linux-gnu"

; Function Attrs: nounwind uwtable
define internal ptr @cms_attrib_get(i32 noundef %0, ptr noundef %1, ptr noundef %2) #0 {
  %4 = alloca ptr, align 8
  %5 = alloca i32, align 4
  %6 = alloca ptr, align 8
  %7 = alloca ptr, align 8
  %8 = alloca ptr, align 8
  %9 = alloca i32, align 4
  %10 = alloca i32, align 4
  store i32 %0, ptr %5, align 4, !tbaa !20
  store ptr %1, ptr %6, align 8, !tbaa !34
  store ptr %2, ptr %7, align 8, !tbaa !35
  call void @llvm.lifetime.start.p0(i64 8, ptr %8) #3
  call void @llvm.lifetime.start.p0(i64 4, ptr %9) #3
  %11 = load ptr, ptr %6, align 8, !tbaa !34
  %12 = load i32, ptr %5, align 4, !tbaa !20
  %13 = load ptr, ptr %7, align 8, !tbaa !35
  %14 = load i32, ptr %13, align 4, !tbaa !20
  %15 = call i32 @X509at_get_attr_by_NID(ptr noundef %11, i32 noundef %12, i32 noundef %14)
  store i32 %15, ptr %9, align 4, !tbaa !20
  %16 = load i32, ptr %9, align 4, !tbaa !20
  %17 = icmp slt i32 %16, 0
  br i1 %17, label %18, label %19

18:                                               ; preds = %3
  store ptr null, ptr %4, align 8
  store i32 1, ptr %10, align 4
  br label %26

19:                                               ; preds = %3
  %20 = load ptr, ptr %6, align 8, !tbaa !34
  %21 = load i32, ptr %9, align 4, !tbaa !20
  %22 = call ptr @X509at_get_attr(ptr noundef %20, i32 noundef %21)
  store ptr %22, ptr %8, align 8, !tbaa !23
  %23 = load i32, ptr %9, align 4, !tbaa !20
  %24 = load ptr, ptr %7, align 8, !tbaa !35
  store i32 %23, ptr %24, align 4, !tbaa !20
  %25 = load ptr, ptr %8, align 8, !tbaa !23
  store ptr %25, ptr %4, align 8
  store i32 1, ptr %10, align 4
  br label %26

26:                                               ; preds = %19, %18
  call void @llvm.lifetime.end.p0(i64 4, ptr %9) #3
  call void @llvm.lifetime.end.p0(i64 8, ptr %8) #3
  %27 = load ptr, ptr %4, align 8
  ret ptr %27
}

; Function Attrs: nounwind uwtable
define internal i32 @cms_check_attribute(i32 noundef %0, i32 noundef %1, i32 noundef %2, ptr noundef %3, i32 noundef %4) #0 {
  %6 = alloca i32, align 4
  %7 = alloca i32, align 4
  %8 = alloca i32, align 4
  %9 = alloca i32, align 4
  %10 = alloca ptr, align 8
  %11 = alloca i32, align 4
  %12 = alloca i32, align 4
  %13 = alloca ptr, align 8
  %14 = alloca i32, align 4
  %15 = alloca i32, align 4
  store i32 %0, ptr %7, align 4, !tbaa !20
  store i32 %1, ptr %8, align 4, !tbaa !20
  store i32 %2, ptr %9, align 4, !tbaa !20
  store ptr %3, ptr %10, align 8, !tbaa !34
  store i32 %4, ptr %11, align 4, !tbaa !20
  call void @llvm.lifetime.start.p0(i64 4, ptr %12) #3
  store i32 -1, ptr %12, align 4, !tbaa !20
  call void @llvm.lifetime.start.p0(i64 8, ptr %13) #3
  %16 = load i32, ptr %7, align 4, !tbaa !20
  %17 = load ptr, ptr %10, align 8, !tbaa !34
  %18 = call ptr @cms_attrib_get(i32 noundef %16, ptr noundef %17, ptr noundef %12)
  store ptr %18, ptr %13, align 8, !tbaa !23
  %19 = load ptr, ptr %13, align 8, !tbaa !23
  %20 = icmp ne ptr %19, null
  br i1 %20, label %21, label %52

21:                                               ; preds = %5
  call void @llvm.lifetime.start.p0(i64 4, ptr %14) #3
  %22 = load ptr, ptr %13, align 8, !tbaa !23
  %23 = call i32 @X509_ATTRIBUTE_count(ptr noundef %22)
  store i32 %23, ptr %14, align 4, !tbaa !20
  %24 = load i32, ptr %8, align 4, !tbaa !20
  %25 = load i32, ptr %9, align 4, !tbaa !20
  %26 = and i32 %24, %25
  %27 = icmp eq i32 %26, 0
  br i1 %27, label %47, label %28

28:                                               ; preds = %21
  %29 = load i32, ptr %8, align 4, !tbaa !20
  %30 = and i32 %29, 32
  %31 = icmp ne i32 %30, 0
  br i1 %31, label %32, label %37

32:                                               ; preds = %28
  %33 = load i32, ptr %7, align 4, !tbaa !20
  %34 = load ptr, ptr %10, align 8, !tbaa !34
  %35 = call ptr @cms_attrib_get(i32 noundef %33, ptr noundef %34, ptr noundef %12)
  %36 = icmp ne ptr %35, null
  br i1 %36, label %47, label %37

37:                                               ; preds = %32, %28
  %38 = load i32, ptr %8, align 4, !tbaa !20
  %39 = and i32 %38, 64
  %40 = icmp ne i32 %39, 0
  br i1 %40, label %41, label %44

41:                                               ; preds = %37
  %42 = load i32, ptr %14, align 4, !tbaa !20
  %43 = icmp ne i32 %42, 1
  br i1 %43, label %47, label %44

44:                                               ; preds = %41, %37
  %45 = load i32, ptr %14, align 4, !tbaa !20
  %46 = icmp eq i32 %45, 0
  br i1 %46, label %47, label %48

47:                                               ; preds = %44, %41, %32, %21
  store i32 0, ptr %6, align 4
  store i32 1, ptr %15, align 4
  br label %49

48:                                               ; preds = %44
  store i32 0, ptr %15, align 4
  br label %49

49:                                               ; preds = %48, %47
  call void @llvm.lifetime.end.p0(i64 4, ptr %14) #3
  %50 = load i32, ptr %15, align 4
  switch i32 %50, label %67 [
    i32 0, label %51
  ]

51:                                               ; preds = %49
  br label %66

52:                                               ; preds = %5
  %53 = load i32, ptr %11, align 4, !tbaa !20
  %54 = icmp ne i32 %53, 0
  br i1 %54, label %55, label %65

55:                                               ; preds = %52
  %56 = load i32, ptr %8, align 4, !tbaa !20
  %57 = and i32 %56, 16
  %58 = icmp ne i32 %57, 0
  br i1 %58, label %59, label %65

59:                                               ; preds = %55
  %60 = load i32, ptr %8, align 4, !tbaa !20
  %61 = load i32, ptr %9, align 4, !tbaa !20
  %62 = and i32 %60, %61
  %63 = icmp ne i32 %62, 0
  br i1 %63, label %64, label %65

64:                                               ; preds = %59
  store i32 0, ptr %6, align 4
  store i32 1, ptr %15, align 4
  br label %67

65:                                               ; preds = %59, %55, %52
  br label %66

66:                                               ; preds = %65, %51
  store i32 1, ptr %6, align 4
  store i32 1, ptr %15, align 4
  br label %67

67:                                               ; preds = %66, %64, %49
  call void @llvm.lifetime.end.p0(i64 8, ptr %13) #3
  call void @llvm.lifetime.end.p0(i64 4, ptr %12) #3
  %68 = load i32, ptr %6, align 4
  ret i32 %68
}