; Function Attrs: nounwind uwtable
define internal fastcc range(i32 0, 2) i32 @cms_check_attribute(i32 noundef %0, i32 noundef %1, i32 noundef range(i32 1, 3) %2, ptr noundef %3, i32 noundef range(i32 0, 2) %4) unnamed_addr #0 {
  %6 = tail call i32 @X509at_get_attr_by_NID(ptr noundef %3, i32 noundef %0, i32 noundef -1) #2
  %7 = icmp slt i32 %6, 0
  br i1 %7, label %cms_attrib_get.exit.thread, label %cms_attrib_get.exit

cms_attrib_get.exit:                              ; preds = %5
  %8 = tail call ptr @X509at_get_attr(ptr noundef %3, i32 noundef %6) #2
  %.not = icmp eq ptr %8, null
  br i1 %.not, label %cms_attrib_get.exit.thread, label %9

9:                                                ; preds = %cms_attrib_get.exit
  %10 = tail call i32 @X509_ATTRIBUTE_count(ptr noundef nonnull %8) #2
  %11 = and i32 %2, %1
  %12 = icmp eq i32 %11, 0
  br i1 %12, label %25, label %13

13:                                               ; preds = %9
  %14 = and i32 %1, 32
  %.not25 = icmp eq i32 %14, 0
  br i1 %.not25, label %cms_attrib_get.exit30.thread, label %15

15:                                               ; preds = %13
  %16 = tail call i32 @X509at_get_attr_by_NID(ptr noundef %3, i32 noundef %0, i32 noundef %6) #2
  %17 = icmp slt i32 %16, 0
  br i1 %17, label %cms_attrib_get.exit30.thread, label %cms_attrib_get.exit30

cms_attrib_get.exit30:                            ; preds = %15
  %18 = tail call ptr @X509at_get_attr(ptr noundef %3, i32 noundef %16) #2
  %.not26 = icmp eq ptr %18, null
  br i1 %.not26, label %cms_attrib_get.exit30.thread, label %25

cms_attrib_get.exit30.thread:                     ; preds = %15, %cms_attrib_get.exit30, %13
  %19 = and i32 %1, 64
  %20 = icmp ne i32 %19, 0
  %21 = icmp ne i32 %10, 1
  %or.cond = select i1 %20, i1 %21, i1 false
  %22 = icmp eq i32 %10, 0
  %or.cond3 = select i1 %or.cond, i1 true, i1 %22
  br i1 %or.cond3, label %25, label %.critedge

cms_attrib_get.exit.thread:                       ; preds = %5, %cms_attrib_get.exit
  %.not22 = icmp eq i32 %4, 0
  %23 = and i32 %1, 16
  %.not23 = icmp eq i32 %23, 0
  %or.cond27 = or i1 %.not23, %.not22
  %24 = and i32 %2, %1
  %.not24 = icmp eq i32 %24, 0
  %or.cond28 = or i1 %.not24, %or.cond27
  br i1 %or.cond28, label %.critedge, label %25

.critedge:                                        ; preds = %cms_attrib_get.exit30.thread, %cms_attrib_get.exit.thread
  br label %25

25:                                               ; preds = %cms_attrib_get.exit.thread, %cms_attrib_get.exit30.thread, %cms_attrib_get.exit30, %9, %.critedge
  %.1 = phi i32 [ 1, %.critedge ], [ 0, %9 ], [ 0, %cms_attrib_get.exit30 ], [ 0, %cms_attrib_get.exit30.thread ], [ 0, %cms_attrib_get.exit.thread ]
  ret i32 %.1
}